Certificate:
    Data:
        Version: 3 (0x2)
        Serial Number: 2 (0x2)
    Signature Algorithm: sha256WithRSAEncryption
        Issuer: DC=ro, DC=turta, O=Turta, OU=Turta Root CA, CN=Turta Root CA
        Validity
            Not Before: Mar 11 13:07:24 2017 GMT
            Not After : Mar 11 13:07:24 2027 GMT
        Subject: DC=ro, DC=turta, O=Turta, OU=Turta Signing CA, CN=Turta Signing CA
        Subject Public Key Info:
            Public Key Algorithm: rsaEncryption
                Public-Key: (2048 bit)
                Modulus:
                    00:b1:94:42:0a:39:e4:2f:90:58:be:17:88:35:d6:
                    46:45:06:db:91:54:7d:39:00:d0:8e:ce:56:a6:22:
                    af:e8:f0:eb:ff:86:91:18:78:3c:d7:32:b6:f9:2e:
                    68:72:e4:77:54:71:5a:f9:d7:39:28:11:73:be:17:
                    c1:21:d3:46:30:7b:c3:a1:95:75:fc:72:84:61:50:
                    84:71:12:4f:cf:c4:27:05:90:eb:94:92:16:3f:8b:
                    f6:90:3c:1f:78:e3:cf:a4:15:b0:8d:bd:07:50:22:
                    7a:c6:2d:50:a3:4d:c0:4a:dc:2c:f9:b9:78:c2:1b:
                    4e:a6:52:8a:18:f9:76:c3:9d:55:1d:bf:2c:34:ed:
                    fc:ea:d9:e0:35:56:8c:a8:18:98:5e:e2:99:aa:ac:
                    72:0c:e8:8f:9e:21:9e:ad:69:a9:5c:e7:ab:80:cf:
                    58:92:8c:74:df:52:fd:30:38:a1:65:20:06:72:39:
                    8b:af:e8:f9:62:49:62:47:6c:b4:e1:da:28:b4:ec:
                    05:56:94:f7:cf:c2:16:fd:2c:74:35:34:30:0f:bb:
                    5a:3d:35:ab:d2:b7:c2:89:cc:43:34:15:00:96:10:
                    b4:6e:82:22:44:bb:b9:6c:b7:68:29:dd:cc:3a:fa:
                    d4:ec:90:47:16:72:ae:e9:0d:3d:10:ba:99:c8:8d:
                    b3:85
                Exponent: 65537 (0x10001)
        X509v3 extensions:
            X509v3 Key Usage: critical
                Certificate Sign, CRL Sign
            X509v3 Basic Constraints: critical
                CA:TRUE, pathlen:0
            X509v3 Subject Key Identifier: 
                23:0D:35:2E:D7:FD:7C:3D:B7:80:42:95:09:FF:61:C8:2A:0D:F1:1B
            X509v3 Authority Key Identifier: 
                keyid:12:6A:37:6C:31:53:36:CC:1E:EE:0A:69:DD:67:6A:F0:2C:7F:DE:95

    Signature Algorithm: sha256WithRSAEncryption
         17:b1:32:01:cb:8c:12:50:a9:2f:c2:e7:44:f3:d0:5a:da:ce:
         2f:ff:25:90:da:75:98:f2:b8:93:c3:14:03:da:15:30:85:14:
         5e:eb:38:a1:35:a8:c1:99:88:d9:cc:fc:af:1f:53:47:c6:ab:
         b4:e2:e0:8f:17:44:34:3a:22:7c:44:5e:50:61:cb:49:dc:e5:
         b0:e9:4b:7f:58:b3:ca:f5:88:95:bf:b4:81:b4:cc:7d:07:9c:
         d0:99:99:e0:eb:28:30:8d:1a:33:cb:86:0a:d9:96:0a:d1:11:
         fe:f8:d2:43:a4:00:08:ca:e9:1f:7b:8a:b0:61:69:02:e0:cd:
         16:11:7d:4b:07:5b:82:f2:4b:bb:80:48:bb:0f:3e:59:e6:2f:
         6e:d6:e3:90:b2:f8:a3:e7:a3:c9:9e:0f:7d:44:3c:5a:1b:ad:
         02:01:7b:02:90:a3:c8:09:92:b3:26:ba:39:06:c6:26:41:c5:
         d1:20:2e:3b:7e:2d:8c:22:8c:b5:38:b8:c8:ba:af:d2:ed:0e:
         2d:24:6c:36:bd:23:69:aa:62:fc:93:42:7a:43:b7:ae:f4:e7:
         32:67:ac:72:c8:8b:e8:57:5e:b3:25:1d:fb:2f:e6:f5:88:83:
         4d:d5:59:35:45:ed:7b:48:0d:24:62:dd:bd:ae:fe:3d:91:69:
         42:e8:bc:fa
-----BEGIN CERTIFICATE-----
MIIDvTCCAqWgAwIBAgIBAjANBgkqhkiG9w0BAQsFADBrMRIwEAYKCZImiZPyLGQB
GRYCcm8xFTATBgoJkiaJk/IsZAEZFgV0dXJ0YTEOMAwGA1UECgwFVHVydGExFjAU
BgNVBAsMDVR1cnRhIFJvb3QgQ0ExFjAUBgNVBAMMDVR1cnRhIFJvb3QgQ0EwHhcN
MTcwMzExMTMwNzI0WhcNMjcwMzExMTMwNzI0WjBxMRIwEAYKCZImiZPyLGQBGRYC
cm8xFTATBgoJkiaJk/IsZAEZFgV0dXJ0YTEOMAwGA1UECgwFVHVydGExGTAXBgNV
BAsMEFR1cnRhIFNpZ25pbmcgQ0ExGTAXBgNVBAMMEFR1cnRhIFNpZ25pbmcgQ0Ew
ggEiMA0GCSqGSIb3DQEBAQUAA4IBDwAwggEKAoIBAQCxlEIKOeQvkFi+F4g11kZF
BtuRVH05ANCOzlamIq/o8Ov/hpEYeDzXMrb5Lmhy5HdUcVr51zkoEXO+F8Eh00Yw
e8OhlXX8coRhUIRxEk/PxCcFkOuUkhY/i/aQPB9448+kFbCNvQdQInrGLVCjTcBK
3Cz5uXjCG06mUooY+XbDnVUdvyw07fzq2eA1VoyoGJhe4pmqrHIM6I+eIZ6taalc
56uAz1iSjHTfUv0wOKFlIAZyOYuv6PliSWJHbLTh2ii07AVWlPfPwhb9LHQ1NDAP
u1o9NavSt8KJzEM0FQCWELRugiJEu7lst2gp3cw6+tTskEcWcq7pDT0QupnIjbOF
AgMBAAGjZjBkMA4GA1UdDwEB/wQEAwIBBjASBgNVHRMBAf8ECDAGAQH/AgEAMB0G
A1UdDgQWBBQjDTUu1/18PbeAQpUJ/2HIKg3xGzAfBgNVHSMEGDAWgBQSajdsMVM2
zB7uCmndZ2rwLH/elTANBgkqhkiG9w0BAQsFAAOCAQEAF7EyAcuMElCpL8LnRPPQ
WtrOL/8lkNp1mPK4k8MUA9oVMIUUXus4oTWowZmI2cz8rx9TR8artOLgjxdENDoi
fEReUGHLSdzlsOlLf1izyvWIlb+0gbTMfQec0JmZ4OsoMI0aM8uGCtmWCtER/vjS
Q6QACMrpH3uKsGFpAuDNFhF9SwdbgvJLu4BIuw8+WeYvbtbjkLL4o+ejyZ4PfUQ8
WhutAgF7ApCjyAmSsya6OQbGJkHF0SAuO34tjCKMtTi4yLqv0u0OLSRsNr0jaapi
/JNCekO3rvTnMmescsiL6FdesyUd+y/m9YiDTdVZNUXte0gNJGLdva7+PZFpQui8
+g==
-----END CERTIFICATE-----
Certificate:
    Data:
        Version: 3 (0x2)
        Serial Number: 1 (0x1)
    Signature Algorithm: sha256WithRSAEncryption
        Issuer: DC=ro, DC=turta, O=Turta, OU=Turta Root CA, CN=Turta Root CA
        Validity
            Not Before: Mar 11 13:07:09 2017 GMT
            Not After : Mar 11 13:07:09 2027 GMT
        Subject: DC=ro, DC=turta, O=Turta, OU=Turta Root CA, CN=Turta Root CA
        Subject Public Key Info:
            Public Key Algorithm: rsaEncryption
                Public-Key: (2048 bit)
                Modulus:
                    00:ed:ae:b5:72:01:7e:b7:c5:b5:de:fc:fb:0b:1c:
                    9a:c3:07:46:a2:a4:bb:43:93:66:ae:30:aa:d0:ea:
                    e9:c6:f2:d4:16:0b:08:64:e5:92:17:22:23:67:b9:
                    78:b2:25:55:26:33:64:25:4d:85:26:ba:1d:8f:cd:
                    4a:d3:48:38:a3:be:c2:64:1d:82:b1:35:dd:34:15:
                    d5:b6:e1:fd:56:6d:bc:98:53:91:eb:f4:f6:f9:04:
                    e3:89:e4:a7:eb:e3:ac:ee:02:f5:58:75:e6:39:dc:
                    75:08:30:2f:38:26:80:44:ba:fd:83:5d:50:69:42:
                    8a:df:78:21:a5:06:19:c8:61:fa:8b:10:97:c0:27:
                    91:a9:57:2e:40:39:ae:e6:68:11:70:e7:3e:ba:b8:
                    42:d4:80:92:5f:bb:83:61:6e:fd:a5:12:ea:ed:7d:
                    09:a1:a3:ab:53:95:82:16:8c:76:fb:02:b7:b9:37:
                    47:c4:66:b7:af:71:c2:3e:3b:00:12:8c:90:b0:44:
                    51:e6:d9:21:2b:91:9a:e1:50:41:a0:80:d8:ce:cc:
                    cb:f6:07:9c:c7:2b:41:65:7f:99:77:f4:1f:9e:e3:
                    a6:f8:29:50:5c:1c:ae:9c:8e:11:b8:6a:9e:c4:7b:
                    d5:ea:73:33:87:3c:af:3b:74:15:07:2b:6e:ad:68:
                    50:ab
                Exponent: 65537 (0x10001)
        X509v3 extensions:
            X509v3 Key Usage: critical
                Certificate Sign, CRL Sign
            X509v3 Basic Constraints: critical
                CA:TRUE
            X509v3 Subject Key Identifier: 
                12:6A:37:6C:31:53:36:CC:1E:EE:0A:69:DD:67:6A:F0:2C:7F:DE:95
            X509v3 Authority Key Identifier: 
                keyid:12:6A:37:6C:31:53:36:CC:1E:EE:0A:69:DD:67:6A:F0:2C:7F:DE:95

    Signature Algorithm: sha256WithRSAEncryption
         15:73:46:9a:65:72:84:af:54:74:c7:67:ae:b6:b0:47:1a:57:
         20:3e:8a:31:45:2b:92:12:e8:d4:22:15:32:cb:4e:34:46:a1:
         3a:6f:52:74:d0:80:06:af:05:d1:9a:eb:d8:d7:50:e7:eb:97:
         be:89:39:30:a2:af:40:57:18:e2:c7:61:6f:02:6f:f6:10:65:
         ea:b1:92:9c:d2:18:05:37:aa:07:1d:54:7b:7a:fd:13:27:85:
         c8:5f:7a:82:2f:d9:0f:38:50:63:c5:f1:02:ea:7c:c1:4e:7c:
         7e:9c:4c:c7:80:43:67:fc:87:95:5a:f7:12:7a:ee:e9:2e:14:
         44:3d:05:3e:cd:9a:17:5c:9d:fd:21:c7:00:86:61:28:db:f0:
         96:52:1f:72:13:46:0f:53:59:b1:14:3e:2b:21:51:e4:a8:d1:
         12:aa:69:58:e8:c2:cc:6a:cd:f8:42:a9:7b:3d:bd:88:00:44:
         be:09:86:8a:7a:e3:7f:7a:e0:57:ef:d0:a1:87:5c:fe:08:4a:
         c3:81:b6:88:e0:5e:c6:f9:5f:46:58:d3:ec:32:e5:d4:1b:7c:
         d0:41:d0:27:6a:6d:e3:18:fb:89:9c:a3:67:c6:45:ec:00:2c:
         be:4c:70:68:f8:97:9e:c9:44:c5:e2:cc:3d:f4:17:a8:01:3a:
         dc:4a:ce:a9
-----BEGIN CERTIFICATE-----
MIIDtDCCApygAwIBAgIBATANBgkqhkiG9w0BAQsFADBrMRIwEAYKCZImiZPyLGQB
GRYCcm8xFTATBgoJkiaJk/IsZAEZFgV0dXJ0YTEOMAwGA1UECgwFVHVydGExFjAU
BgNVBAsMDVR1cnRhIFJvb3QgQ0ExFjAUBgNVBAMMDVR1cnRhIFJvb3QgQ0EwHhcN
MTcwMzExMTMwNzA5WhcNMjcwMzExMTMwNzA5WjBrMRIwEAYKCZImiZPyLGQBGRYC
cm8xFTATBgoJkiaJk/IsZAEZFgV0dXJ0YTEOMAwGA1UECgwFVHVydGExFjAUBgNV
BAsMDVR1cnRhIFJvb3QgQ0ExFjAUBgNVBAMMDVR1cnRhIFJvb3QgQ0EwggEiMA0G
CSqGSIb3DQEBAQUAA4IBDwAwggEKAoIBAQDtrrVyAX63xbXe/PsLHJrDB0aipLtD
k2auMKrQ6unG8tQWCwhk5ZIXIiNnuXiyJVUmM2QlTYUmuh2PzUrTSDijvsJkHYKx
Nd00FdW24f1WbbyYU5Hr9Pb5BOOJ5Kfr46zuAvVYdeY53HUIMC84JoBEuv2DXVBp
QorfeCGlBhnIYfqLEJfAJ5GpVy5AOa7maBFw5z66uELUgJJfu4Nhbv2lEurtfQmh
o6tTlYIWjHb7Are5N0fEZrevccI+OwASjJCwRFHm2SErkZrhUEGggNjOzMv2B5zH
K0Flf5l39B+e46b4KVBcHK6cjhG4ap7Ee9XqczOHPK87dBUHK26taFCrAgMBAAGj
YzBhMA4GA1UdDwEB/wQEAwIBBjAPBgNVHRMBAf8EBTADAQH/MB0GA1UdDgQWBBQS
ajdsMVM2zB7uCmndZ2rwLH/elTAfBgNVHSMEGDAWgBQSajdsMVM2zB7uCmndZ2rw
LH/elTANBgkqhkiG9w0BAQsFAAOCAQEAFXNGmmVyhK9UdMdnrrawRxpXID6KMUUr
khLo1CIVMstONEahOm9SdNCABq8F0Zrr2NdQ5+uXvok5MKKvQFcY4sdhbwJv9hBl
6rGSnNIYBTeqBx1Ue3r9EyeFyF96gi/ZDzhQY8XxAup8wU58fpxMx4BDZ/yHlVr3
Enru6S4URD0FPs2aF1yd/SHHAIZhKNvwllIfchNGD1NZsRQ+KyFR5KjREqppWOjC
zGrN+EKpez29iABEvgmGinrjf3rgV+/QoYdc/ghKw4G2iOBexvlfRljT7DLl1Bt8
0EHQJ2pt4xj7iZyjZ8ZF7AAsvkxwaPiXnslExeLMPfQXqAE63ErOqQ==
-----END CERTIFICATE-----
